; Function Attrs: nofree norecurse nosync nounwind memory(readwrite, inaccessiblemem: none) uwtable
define void @Ivy_FraigSavePattern2(ptr noundef readonly captures(none) %0) local_unnamed_addr #9 {
  %2 = getelementptr inbounds nuw i8, ptr %0, i64 72
  %3 = load ptr, ptr %2, align 8, !tbaa !109
  %4 = getelementptr inbounds nuw i8, ptr %0, i64 64
  %5 = load i32, ptr %4, align 8, !tbaa !108
  %6 = sext i32 %5 to i64
  %7 = shl nsw i64 %6, 2
  tail call void @llvm.memset.p0.i64(ptr align 4 %3, i8 0, i64 %7, i1 false)
  %8 = getelementptr inbounds nuw i8, ptr %0, i64 160
  %9 = load ptr, ptr %8, align 8, !tbaa !88
  %10 = getelementptr i8, ptr %9, i64 4
  %.val12 = load i32, ptr %10, align 4, !tbaa !47
  %11 = icmp sgt i32 %.val12, 0
  br i1 %11, label %.lr.ph, label %.critedge

.lr.ph:                                           ; preds = %1
  %12 = getelementptr i8, ptr %9, i64 8
  %.val10 = load ptr, ptr %12, align 8, !tbaa !49
  %13 = getelementptr inbounds nuw i8, ptr %0, i64 144
  %14 = load ptr, ptr %13, align 8, !tbaa !71
  %15 = getelementptr inbounds nuw i8, ptr %14, i64 328
  %16 = load ptr, ptr %15, align 8, !tbaa !136
  br label %17

17:                                               ; preds = %.lr.ph, %37
  %.val15 = phi i32 [ %.val12, %.lr.ph ], [ %.val, %37 ]
  %indvars.iv = phi i64 [ 0, %.lr.ph ], [ %indvars.iv.next, %37 ]
  %18 = getelementptr inbounds nuw ptr, ptr %.val10, i64 %indvars.iv
  %19 = load ptr, ptr %18, align 8, !tbaa !51
  %20 = getelementptr i8, ptr %19, i64 40
  %.val11 = load ptr, ptr %20, align 8, !tbaa !126
  %21 = ptrtoint ptr %.val11 to i64
  %sext = shl i64 %21, 32
  %22 = ashr exact i64 %sext, 30
  %23 = getelementptr inbounds i8, ptr %16, i64 %22
  %24 = load i32, ptr %23, align 4, !tbaa !38
  %25 = icmp eq i32 %24, 1
  br i1 %25, label %26, label %37

26:                                               ; preds = %17
  %27 = load ptr, ptr %2, align 8, !tbaa !109
  %28 = load i32, ptr %19, align 8, !tbaa !121
  %29 = add nsw i32 %28, -1
  %30 = and i32 %29, 31
  %31 = shl nuw i32 1, %30
  %32 = ashr i32 %29, 5
  %33 = sext i32 %32 to i64
  %34 = getelementptr inbounds i32, ptr %27, i64 %33
  %35 = load i32, ptr %34, align 4, !tbaa !38
  %36 = or i32 %31, %35
  store i32 %36, ptr %34, align 4, !tbaa !38
  %.val.pre = load i32, ptr %10, align 4, !tbaa !47
  br label %37

37:                                               ; preds = %17, %26
  %.val = phi i32 [ %.val15, %17 ], [ %.val.pre, %26 ]
  %indvars.iv.next = add nuw nsw i64 %indvars.iv, 1
  %38 = sext i32 %.val to i64
  %39 = icmp slt i64 %indvars.iv.next, %38
  br i1 %39, label %17, label %.critedge, !llvm.loop !200

.critedge:                                        ; preds = %37, %1
  ret void
}